; Function Attrs: nounwind uwtable
define dso_local range(i64 -2147483648, 2147483648) i64 @array_lower(ptr noundef captures(none) %0) local_unnamed_addr #0 {
  %2 = getelementptr inbounds nuw i8, ptr %0, i64 32
  %3 = load i64, ptr %2, align 8
  %4 = tail call ptr @DatumGetAnyArrayP(i64 noundef %3) #18
  %5 = getelementptr inbounds nuw i8, ptr %0, i64 48
  %6 = load i64, ptr %5, align 8
  %7 = load i32, ptr %4, align 4
  %8 = icmp eq i32 %7, -1
  %9 = getelementptr inbounds nuw i8, ptr %4, i64 52
  %10 = getelementptr inbounds nuw i8, ptr %4, i64 4
  %.in = select i1 %8, ptr %9, ptr %10
  %11 = load i32, ptr %.in, align 4
  %12 = add i32 %11, -7
  %or.cond = icmp ult i32 %12, -6
  br i1 %or.cond, label %13, label %15

13:                                               ; preds = %1
  %14 = getelementptr inbounds nuw i8, ptr %0, i64 28
  store i8 1, ptr %14, align 4
  br label %38

15:                                               ; preds = %1
  %16 = trunc i64 %6 to i32
  %17 = icmp slt i32 %16, 1
  %18 = icmp samesign ult i32 %11, %16
  %or.cond25 = select i1 %17, i1 true, i1 %18
  br i1 %or.cond25, label %19, label %21

19:                                               ; preds = %15
  %20 = getelementptr inbounds nuw i8, ptr %0, i64 28
  store i8 1, ptr %20, align 4
  br label %38

21:                                               ; preds = %15
  br i1 %8, label %22, label %25

22:                                               ; preds = %21
  %23 = getelementptr inbounds nuw i8, ptr %4, i64 64
  %24 = load ptr, ptr %23, align 8
  br label %31

25:                                               ; preds = %21
  %26 = getelementptr inbounds nuw i8, ptr %4, i64 16
  %27 = load i32, ptr %10, align 4
  %28 = sext i32 %27 to i64
  %29 = shl nsw i64 %28, 2
  %30 = getelementptr inbounds nuw i8, ptr %26, i64 %29
  br label %31

31:                                               ; preds = %25, %22
  %32 = phi ptr [ %24, %22 ], [ %30, %25 ]
  %33 = and i64 %6, 2147483647
  %34 = getelementptr i32, ptr %32, i64 %33
  %35 = getelementptr i8, ptr %34, i64 -4
  %36 = load i32, ptr %35, align 4
  %37 = sext i32 %36 to i64
  br label %38

38:                                               ; preds = %31, %19, %13
  %.0 = phi i64 [ 0, %13 ], [ 0, %19 ], [ %37, %31 ]
  ret i64 %.0
}